target datalayout = "e-m:e-p270:32:32-p271:32:32-p272:64:64-i64:64-i128:128-f80:128-n8:16:32:64-S128"
target triple = "x86_64-unknown-linux-gnu"

%class.symbol = type { ptr }
%class.params = type <{ %class.svector.0, %"struct.std::atomic", [4 x i8] }>
%class.svector.0 = type { %class.vector.1 }
%class.vector.1 = type { ptr }
%"struct.std::atomic" = type { %"struct.std::__atomic_base" }
%"struct.std::__atomic_base" = type { i32 }
%"struct.std::pair" = type { %class.symbol, %"struct.params::value" }
%"struct.params::value" = type { i32, %union.anon.2 }
%union.anon.2 = type { double }
%class.rational = type { %class.mpq }
%class.mpq = type { %class.mpz, %class.mpz }
%class.mpz = type { i32, i8, ptr }

@_ZN8rational13g_mpq_managerE = external global ptr, align 8

; Function Attrs: mustprogress uwtable
define linkonce_odr hidden void @_ZN11mpq_managerILb1EE3delEPS0_R3mpq(ptr noundef %m, ptr noundef nonnull align 8 dereferenceable(32) %a) #5 comdat align 2 {
entry:
  %m.addr = alloca ptr, align 8
  %a.addr = alloca ptr, align 8
  store ptr %m, ptr %m.addr, align 8
  store ptr %a, ptr %a.addr, align 8
  %0 = load ptr, ptr %m.addr, align 8
  %1 = load ptr, ptr %a.addr, align 8
  %m_num = getelementptr inbounds %class.mpq, ptr %1, i32 0, i32 0
  call void @_ZN11mpz_managerILb1EE3delEPS0_R3mpz(ptr noundef %0, ptr noundef nonnull align 8 dereferenceable(16) %m_num)
  %2 = load ptr, ptr %m.addr, align 8
  %3 = load ptr, ptr %a.addr, align 8
  %m_den = getelementptr inbounds %class.mpq, ptr %3, i32 0, i32 1
  call void @_ZN11mpz_managerILb1EE3delEPS0_R3mpz(ptr noundef %2, ptr noundef nonnull align 8 dereferenceable(16) %m_den)
  ret void
}

; Function Attrs: mustprogress nounwind uwtable
define linkonce_odr hidden void @_ZN8rationalD2Ev(ptr noundef nonnull align 8 dereferenceable(32) %this) unnamed_addr #4 comdat align 2 personality ptr @__gxx_personality_v0 {
entry:
  %this.addr = alloca ptr, align 8
  store ptr %this, ptr %this.addr, align 8
  %this1 = load ptr, ptr %this.addr, align 8
  %0 = load ptr, ptr @_ZN8rational13g_mpq_managerE, align 8
  %m_val = getelementptr inbounds %class.rational, ptr %this1, i32 0, i32 0
  invoke void @_ZN11mpq_managerILb1EE3delEPS0_R3mpq(ptr noundef %0, ptr noundef nonnull align 8 dereferenceable(32) %m_val)
          to label %invoke.cont unwind label %terminate.lpad

invoke.cont:                                      ; preds = %entry
  ret void

terminate.lpad:                                   ; preds = %entry
  %1 = landingpad { ptr, i32 }
          catch ptr null
  %2 = extractvalue { ptr, i32 } %1, 0
  call void @__clang_call_terminate(ptr %2) #16
  unreachable
}

; Function Attrs: mustprogress nounwind uwtable
define linkonce_odr hidden void @_ZN6params5valueC2Ev(ptr noundef nonnull align 8 dereferenceable(16) %this) unnamed_addr #4 comdat align 2 {
entry:
  %this.addr = alloca ptr, align 8
  store ptr %this, ptr %this.addr, align 8
  %this1 = load ptr, ptr %this.addr, align 8
  %m_kind = getelementptr inbounds %"struct.params::value", ptr %this1, i32 0, i32 0
  store i32 1, ptr %m_kind, align 8
  %0 = getelementptr inbounds %"struct.params::value", ptr %this1, i32 0, i32 1
  store i8 0, ptr %0, align 8
  ret void
}

; Function Attrs: mustprogress nounwind uwtable
define linkonce_odr hidden void @_ZN6symbolC2Ev(ptr noundef nonnull align 8 dereferenceable(8) %this) unnamed_addr #4 comdat align 2 {
entry:
  %this.addr = alloca ptr, align 8
  store ptr %this, ptr %this.addr, align 8
  %this1 = load ptr, ptr %this.addr, align 8
  %m_data = getelementptr inbounds %class.symbol, ptr %this1, i32 0, i32 0
  store ptr null, ptr %m_data, align 8
  ret void
}

; Function Attrs: mustprogress uwtable
define linkonce_odr hidden void @_Z7deallocI8rationalEvPT_(ptr noundef %ptr) #5 comdat {
entry:
  %ptr.addr = alloca ptr, align 8
  store ptr %ptr, ptr %ptr.addr, align 8
  %0 = load ptr, ptr %ptr.addr, align 8
  %cmp = icmp eq ptr %0, null
  br i1 %cmp, label %if.then, label %if.end

if.then:                                          ; preds = %entry
  br label %return

if.end:                                           ; preds = %entry
  %1 = load ptr, ptr %ptr.addr, align 8
  call void @_ZN8rationalD2Ev(ptr noundef nonnull align 8 dereferenceable(32) %1) #3
  %2 = load ptr, ptr %ptr.addr, align 8
  call void @_ZN6memory10deallocateEPv(ptr noundef %2)
  br label %return

return:                                           ; preds = %if.end, %if.then
  ret void
}

; Function Attrs: mustprogress nounwind uwtable
define linkonce_odr hidden noundef i32 @_ZNK6vectorISt4pairI6symbolN6params5valueEELb0EjE4sizeEv(ptr noundef nonnull align 8 dereferenceable(8) %this) #4 comdat align 2 {
entry:
  %retval = alloca i32, align 4
  %this.addr = alloca ptr, align 8
  store ptr %this, ptr %this.addr, align 8
  %this1 = load ptr, ptr %this.addr, align 8
  %m_data = getelementptr inbounds %class.vector.1, ptr %this1, i32 0, i32 0
  %0 = load ptr, ptr %m_data, align 8
  %cmp = icmp eq ptr %0, null
  br i1 %cmp, label %if.then, label %if.end

if.then:                                          ; preds = %entry
  store i32 0, ptr %retval, align 4
  br label %return

if.end:                                           ; preds = %entry
  %m_data2 = getelementptr inbounds %class.vector.1, ptr %this1, i32 0, i32 0
  %1 = load ptr, ptr %m_data2, align 8
  %arrayidx = getelementptr inbounds i32, ptr %1, i64 -1
  %2 = load i32, ptr %arrayidx, align 4
  store i32 %2, ptr %retval, align 4
  br label %return

return:                                           ; preds = %if.end, %if.then
  %3 = load i32, ptr %retval, align 4
  ret i32 %3
}

; Function Attrs: mustprogress uwtable
define linkonce_odr hidden noundef nonnull align 8 dereferenceable(8) ptr @_ZN6vectorISt4pairI6symbolN6params5valueEELb0EjE9push_backERKS4_(ptr noundef nonnull align 8 dereferenceable(8) %this, ptr noundef nonnull align 8 dereferenceable(24) %elem) #5 comdat align 2 {
entry:
  %this.addr = alloca ptr, align 8
  %elem.addr = alloca ptr, align 8
  store ptr %this, ptr %this.addr, align 8
  store ptr %elem, ptr %elem.addr, align 8
  %this1 = load ptr, ptr %this.addr, align 8
  %m_data = getelementptr inbounds %class.vector.1, ptr %this1, i32 0, i32 0
  %0 = load ptr, ptr %m_data, align 8
  %cmp = icmp eq ptr %0, null
  br i1 %cmp, label %if.then, label %lor.lhs.false

lor.lhs.false:                                    ; preds = %entry
  %m_data2 = getelementptr inbounds %class.vector.1, ptr %this1, i32 0, i32 0
  %1 = load ptr, ptr %m_data2, align 8
  %arrayidx = getelementptr inbounds i32, ptr %1, i64 -1
  %2 = load i32, ptr %arrayidx, align 4
  %m_data3 = getelementptr inbounds %class.vector.1, ptr %this1, i32 0, i32 0
  %3 = load ptr, ptr %m_data3, align 8
  %arrayidx4 = getelementptr inbounds i32, ptr %3, i64 -2
  %4 = load i32, ptr %arrayidx4, align 4
  %cmp5 = icmp eq i32 %2, %4
  br i1 %cmp5, label %if.then, label %if.end

if.then:                                          ; preds = %lor.lhs.false, %entry
  call void @_ZN6vectorISt4pairI6symbolN6params5valueEELb0EjE13expand_vectorEv(ptr noundef nonnull align 8 dereferenceable(8) %this1)
  br label %if.end

if.end:                                           ; preds = %if.then, %lor.lhs.false
  %m_data6 = getelementptr inbounds %class.vector.1, ptr %this1, i32 0, i32 0
  %5 = load ptr, ptr %m_data6, align 8
  %m_data7 = getelementptr inbounds %class.vector.1, ptr %this1, i32 0, i32 0
  %6 = load ptr, ptr %m_data7, align 8
  %arrayidx8 = getelementptr inbounds i32, ptr %6, i64 -1
  %7 = load i32, ptr %arrayidx8, align 4
  %idx.ext = zext i32 %7 to i64
  %add.ptr = getelementptr inbounds %"struct.std::pair", ptr %5, i64 %idx.ext
  %8 = load ptr, ptr %elem.addr, align 8
  call void @llvm.memcpy.p0.p0.i64(ptr align 8 %add.ptr, ptr align 8 %8, i64 24, i1 false)
  %m_data9 = getelementptr inbounds %class.vector.1, ptr %this1, i32 0, i32 0
  %9 = load ptr, ptr %m_data9, align 8
  %arrayidx10 = getelementptr inbounds i32, ptr %9, i64 -1
  %10 = load i32, ptr %arrayidx10, align 4
  %inc = add i32 %10, 1
  store i32 %inc, ptr %arrayidx10, align 4
  ret ptr %this1
}

; Function Attrs: mustprogress uwtable
define linkonce_odr hidden void @_ZNSt4pairI6symbolN6params5valueEEC2IS0_S2_TnNSt9enable_ifIXsr6__and_ISt37__is_implicitly_default_constructibleIT_ES6_IT0_EEE5valueEbE4typeELb1EEEv(ptr noundef nonnull align 8 dereferenceable(24) %this) unnamed_addr #5 comdat align 2 {
entry:
  %this.addr = alloca ptr, align 8
  store ptr %this, ptr %this.addr, align 8
  %this1 = load ptr, ptr %this.addr, align 8
  %first = getelementptr inbounds %"struct.std::pair", ptr %this1, i32 0, i32 0
  call void @_ZN6symbolC2Ev(ptr noundef nonnull align 8 dereferenceable(8) %first)
  %second = getelementptr inbounds %"struct.std::pair", ptr %this1, i32 0, i32 1
  call void @_ZN6params5valueC2Ev(ptr noundef nonnull align 8 dereferenceable(16) %second)
  ret void
}

; Function Attrs: mustprogress uwtable
define hidden void @_ZN6params9del_valueERSt4pairI6symbolNS_5valueEE(ptr noundef nonnull align 8 dereferenceable(12) %this, ptr noundef nonnull align 8 dereferenceable(24) %e) #5 align 2 {
entry:
  %this.addr = alloca ptr, align 8
  %e.addr = alloca ptr, align 8
  store ptr %this, ptr %this.addr, align 8
  store ptr %e, ptr %e.addr, align 8
  %0 = load ptr, ptr %e.addr, align 8
  %second = getelementptr inbounds %"struct.std::pair", ptr %0, i32 0, i32 1
  %m_kind = getelementptr inbounds %"struct.params::value", ptr %second, i32 0, i32 0
  %1 = load i32, ptr %m_kind, align 8
  switch i32 %1, label %sw.default [
    i32 3, label %sw.bb
  ]

sw.bb:                                            ; preds = %entry
  %2 = load ptr, ptr %e.addr, align 8
  %second2 = getelementptr inbounds %"struct.std::pair", ptr %2, i32 0, i32 1
  %m_kind3 = getelementptr inbounds %"struct.params::value", ptr %second2, i32 0, i32 0
  %3 = load i32, ptr %m_kind3, align 8
  %cmp = icmp eq i32 %3, 3
  br i1 %cmp, label %if.then, label %if.end

if.then:                                          ; preds = %sw.bb
  %4 = load ptr, ptr %e.addr, align 8
  %second4 = getelementptr inbounds %"struct.std::pair", ptr %4, i32 0, i32 1
  %5 = getelementptr inbounds %"struct.params::value", ptr %second4, i32 0, i32 1
  %6 = load ptr, ptr %5, align 8
  call void @_Z7deallocI8rationalEvPT_(ptr noundef %6)
  br label %if.end

if.end:                                           ; preds = %if.then, %sw.bb
  br label %sw.epilog

sw.default:                                       ; preds = %entry
  br label %sw.epilog

sw.epilog:                                        ; preds = %sw.default, %if.end
  ret void
}

; Function Attrs: mustprogress nounwind uwtable
define linkonce_odr hidden noundef zeroext i1 @_ZeqRK6symbolS1_(ptr noundef nonnull align 8 dereferenceable(8) %s1, ptr noundef nonnull align 8 dereferenceable(8) %s2) #4 comdat {
entry:
  %s1.addr = alloca ptr, align 8
  %s2.addr = alloca ptr, align 8
  store ptr %s1, ptr %s1.addr, align 8
  store ptr %s2, ptr %s2.addr, align 8
  %0 = load ptr, ptr %s1.addr, align 8
  %m_data = getelementptr inbounds %class.symbol, ptr %0, i32 0, i32 0
  %1 = load ptr, ptr %m_data, align 8
  %2 = load ptr, ptr %s2.addr, align 8
  %m_data1 = getelementptr inbounds %class.symbol, ptr %2, i32 0, i32 0
  %3 = load ptr, ptr %m_data1, align 8
  %cmp = icmp eq ptr %1, %3
  ret i1 %cmp
}

; Function Attrs: mustprogress uwtable
define linkonce_odr hidden noundef ptr @_ZN6vectorISt4pairI6symbolN6params5valueEELb0EjE3endEv(ptr noundef nonnull align 8 dereferenceable(8) %this) #5 comdat align 2 {
entry:
  %this.addr = alloca ptr, align 8
  store ptr %this, ptr %this.addr, align 8
  %this1 = load ptr, ptr %this.addr, align 8
  %m_data = getelementptr inbounds %class.vector.1, ptr %this1, i32 0, i32 0
  %0 = load ptr, ptr %m_data, align 8
  %call = call noundef i32 @_ZNK6vectorISt4pairI6symbolN6params5valueEELb0EjE4sizeEv(ptr noundef nonnull align 8 dereferenceable(8) %this1)
  %idx.ext = zext i32 %call to i64
  %add.ptr = getelementptr inbounds %"struct.std::pair", ptr %0, i64 %idx.ext
  ret ptr %add.ptr
}

; Function Attrs: mustprogress nounwind uwtable
define linkonce_odr hidden noundef ptr @_ZN6vectorISt4pairI6symbolN6params5valueEELb0EjE5beginEv(ptr noundef nonnull align 8 dereferenceable(8) %this) #4 comdat align 2 {
entry:
  %this.addr = alloca ptr, align 8
  store ptr %this, ptr %this.addr, align 8
  %this1 = load ptr, ptr %this.addr, align 8
  %m_data = getelementptr inbounds %class.vector.1, ptr %this1, i32 0, i32 0
  %0 = load ptr, ptr %m_data, align 8
  ret ptr %0
}

; Function Attrs: mustprogress uwtable
define hidden void @_ZN6params10set_doubleERK6symbold(ptr noundef nonnull align 8 dereferenceable(12) %this, ptr noundef nonnull align 8 dereferenceable(8) %k, double noundef %v) #5 align 2 {
entry:
  %this.addr = alloca ptr, align 8
  %k.addr = alloca ptr, align 8
  %v.addr = alloca double, align 8
  %it = alloca ptr, align 8
  %end = alloca ptr, align 8
  %new_entry = alloca %"struct.std::pair", align 8
  %ref.tmp = alloca %class.symbol, align 8
  store ptr %this, ptr %this.addr, align 8
  store ptr %k, ptr %k.addr, align 8
  store double %v, ptr %v.addr, align 8
  %this1 = load ptr, ptr %this.addr, align 8
  %m_entries = getelementptr inbounds %class.params, ptr %this1, i32 0, i32 0
  %call = call noundef ptr @_ZN6vectorISt4pairI6symbolN6params5valueEELb0EjE5beginEv(ptr noundef nonnull align 8 dereferenceable(8) %m_entries)
  store ptr %call, ptr %it, align 8
  %m_entries2 = getelementptr inbounds %class.params, ptr %this1, i32 0, i32 0
  %call3 = call noundef ptr @_ZN6vectorISt4pairI6symbolN6params5valueEELb0EjE3endEv(ptr noundef nonnull align 8 dereferenceable(8) %m_entries2)
  store ptr %call3, ptr %end, align 8
  br label %for.cond

for.cond:                                         ; preds = %for.inc, %entry
  %0 = load ptr, ptr %it, align 8
  %1 = load ptr, ptr %end, align 8
  %cmp = icmp ne ptr %0, %1
  br i1 %cmp, label %for.body, label %for.end

for.body:                                         ; preds = %for.cond
  %2 = load ptr, ptr %it, align 8
  %first = getelementptr inbounds %"struct.std::pair", ptr %2, i32 0, i32 0
  %3 = load ptr, ptr %k.addr, align 8
  %call4 = call noundef zeroext i1 @_ZeqRK6symbolS1_(ptr noundef nonnull align 8 dereferenceable(8) %first, ptr noundef nonnull align 8 dereferenceable(8) %3)
  br i1 %call4, label %if.then, label %if.end

if.then:                                          ; preds = %for.body
  %4 = load ptr, ptr %it, align 8
  call void @_ZN6params9del_valueERSt4pairI6symbolNS_5valueEE(ptr noundef nonnull align 8 dereferenceable(12) %this1, ptr noundef nonnull align 8 dereferenceable(24) %4)
  %5 = load ptr, ptr %it, align 8
  %second = getelementptr inbounds %"struct.std::pair", ptr %5, i32 0, i32 1
  %m_kind = getelementptr inbounds %"struct.params::value", ptr %second, i32 0, i32 0
  store i32 2, ptr %m_kind, align 8
  %6 = load double, ptr %v.addr, align 8
  %7 = load ptr, ptr %it, align 8
  %second5 = getelementptr inbounds %"struct.std::pair", ptr %7, i32 0, i32 1
  %8 = getelementptr inbounds %"struct.params::value", ptr %second5, i32 0, i32 1
  store double %6, ptr %8, align 8
  br label %return

if.end:                                           ; preds = %for.body
  br label %for.inc

for.inc:                                          ; preds = %if.end
  %9 = load ptr, ptr %it, align 8
  %incdec.ptr = getelementptr inbounds %"struct.std::pair", ptr %9, i32 1
  store ptr %incdec.ptr, ptr %it, align 8
  br label %for.cond, !llvm.loop !10

for.end:                                          ; preds = %for.cond
  call void @_ZNSt4pairI6symbolN6params5valueEEC2IS0_S2_TnNSt9enable_ifIXsr6__and_ISt37__is_implicitly_default_constructibleIT_ES6_IT0_EEE5valueEbE4typeELb1EEEv(ptr noundef nonnull align 8 dereferenceable(24) %new_entry)
  %10 = load ptr, ptr %k.addr, align 8
  call void @llvm.memcpy.p0.p0.i64(ptr align 8 %ref.tmp, ptr align 8 %10, i64 8, i1 false)
  %first6 = getelementptr inbounds %"struct.std::pair", ptr %new_entry, i32 0, i32 0
  call void @llvm.memcpy.p0.p0.i64(ptr align 8 %first6, ptr align 8 %ref.tmp, i64 8, i1 false)
  %second7 = getelementptr inbounds %"struct.std::pair", ptr %new_entry, i32 0, i32 1
  %m_kind8 = getelementptr inbounds %"struct.params::value", ptr %second7, i32 0, i32 0
  store i32 2, ptr %m_kind8, align 8
  %11 = load double, ptr %v.addr, align 8
  %second9 = getelementptr inbounds %"struct.std::pair", ptr %new_entry, i32 0, i32 1
  %12 = getelementptr inbounds %"struct.params::value", ptr %second9, i32 0, i32 1
  store double %11, ptr %12, align 8
  %m_entries10 = getelementptr inbounds %class.params, ptr %this1, i32 0, i32 0
  %call11 = call noundef nonnull align 8 dereferenceable(8) ptr @_ZN6vectorISt4pairI6symbolN6params5valueEELb0EjE9push_backERKS4_(ptr noundef nonnull align 8 dereferenceable(8) %m_entries10, ptr noundef nonnull align 8 dereferenceable(24) %new_entry)
  br label %return

return:                                           ; preds = %for.end, %if.then
  ret void
}